EXPORTS
    _ZN5DCode6enCodeESt4listISsSaISsEE @1
    _ZN5DCode6unCodeESs @2
    _ZN5DCodeC1ENS_9DCodeModeE @3
    _ZN5DCodeC1Ev @4
    _ZN5DCodeC2ENS_9DCodeModeE @5
    _ZN5DCodeC2Ev @6
    _ZN5DCodeD1Ev @7
    _ZN5DCodeD2Ev @8
    _ZN9__gnu_cxx13new_allocatorISsE7destroyEPSs @9
    _ZN9__gnu_cxx13new_allocatorISsEC2Ev @10
    _ZN9__gnu_cxx13new_allocatorISsED2Ev @11
    _ZN9__gnu_cxx13new_allocatorISt10_List_nodeISsEE10deallocateEPS2_y @12
    _ZN9__gnu_cxx13new_allocatorISt10_List_nodeISsEEC2Ev @13
    _ZN9__gnu_cxx13new_allocatorISt10_List_nodeISsEED2Ev @14
    _ZNKSt10_List_baseISsSaISsEE19_M_get_Tp_allocatorEv @15
    _ZNKSt10_List_baseISsSaISsEE21_M_get_Node_allocatorEv @16
    _ZNSaISsEC1ISt10_List_nodeISsEEERKSaIT_E @17
    _ZNSaISsED1Ev @18
    _ZNSaISt10_List_nodeISsEEC2Ev @19
    _ZNSaISt10_List_nodeISsEED2Ev @20
    _ZNSt10_List_baseISsSaISsEE10_List_implC1Ev @21
    _ZNSt10_List_baseISsSaISsEE10_List_implD1Ev @22
    _ZNSt10_List_baseISsSaISsEE11_M_put_nodeEPSt10_List_nodeISsE @23
    _ZNSt10_List_baseISsSaISsEE7_M_initEv @24
    _ZNSt10_List_baseISsSaISsEE8_M_clearEv @25
    _ZNSt10_List_baseISsSaISsEEC2Ev @26
    _ZNSt10_List_baseISsSaISsEED2Ev @27
    _ZNSt4listISsSaISsEEC1Ev @28
    _ZNSt4listISsSaISsEED1Ev @29
    _ZSt11__addressofISsEPT_RS0_ @30
